; Function Attrs: mustprogress uwtable
define void @_ZN13sentencepiece10normalizer10NormalizerC2ERKNS_14NormalizerSpecE(ptr noundef nonnull align 8 dereferenceable(56) initializes((0, 41)) %0, ptr noundef nonnull align 8 dereferenceable(80) %1) unnamed_addr #3 align 2 personality ptr @__gxx_personality_v0 {
  store ptr getelementptr inbounds nuw inrange(-16, 48) (i8, ptr @_ZTVN13sentencepiece10normalizer10NormalizerE, i64 16), ptr %0, align 8, !tbaa !3
  %3 = getelementptr inbounds nuw i8, ptr %0, i64 8
  %4 = getelementptr inbounds nuw i8, ptr %0, i64 24
  tail call void @llvm.memset.p0.i64(ptr noundef nonnull align 8 dereferenceable(16) %3, i8 0, i64 16, i1 false)
  store ptr %1, ptr %4, align 8, !tbaa !6
  %5 = getelementptr inbounds nuw i8, ptr %0, i64 32
  store ptr null, ptr %5, align 8, !tbaa !29
  %6 = getelementptr inbounds nuw i8, ptr %0, i64 40
  store i8 0, ptr %6, align 8, !tbaa !51
  %7 = getelementptr inbounds nuw i8, ptr %0, i64 48
  invoke void @_ZN13sentencepiece4util6StatusC1Ev(ptr noundef nonnull align 8 dereferenceable(8) %7)
          to label %_ZN13sentencepiece4util8OkStatusEv.exit unwind label %9

_ZN13sentencepiece4util8OkStatusEv.exit:          ; preds = %2
  invoke void @_ZN13sentencepiece10normalizer10Normalizer4InitEv(ptr noundef nonnull align 8 dereferenceable(56) %0)
          to label %8 unwind label %11

8:                                                ; preds = %_ZN13sentencepiece4util8OkStatusEv.exit
  ret void

9:                                                ; preds = %2
  %10 = landingpad { ptr, i32 }
          cleanup
  br label %13

11:                                               ; preds = %_ZN13sentencepiece4util8OkStatusEv.exit
  %12 = landingpad { ptr, i32 }
          cleanup
  tail call void @_ZN13sentencepiece4util6StatusD1Ev(ptr noundef nonnull align 8 dereferenceable(8) %7) #25
  br label %13

13:                                               ; preds = %11, %9
  %.pn = phi { ptr, i32 } [ %12, %11 ], [ %10, %9 ]
  %14 = load ptr, ptr %3, align 8, !tbaa !52
  %.not.i = icmp eq ptr %14, null
  br i1 %.not.i, label %_ZNSt10unique_ptrIN5Darts15DoubleArrayImplIvvivEESt14default_deleteIS2_EED2Ev.exit, label %_ZNKSt14default_deleteIN5Darts15DoubleArrayImplIvvivEEEclEPS2_.exit.i

_ZNKSt14default_deleteIN5Darts15DoubleArrayImplIvvivEEEclEPS2_.exit.i: ; preds = %13
  %15 = load ptr, ptr %14, align 8, !tbaa !3
  %16 = getelementptr inbounds nuw i8, ptr %15, i64 8
  %17 = load ptr, ptr %16, align 8
  tail call void %17(ptr noundef nonnull align 8 dereferenceable(32) %14) #25
  br label %_ZNSt10unique_ptrIN5Darts15DoubleArrayImplIvvivEESt14default_deleteIS2_EED2Ev.exit

_ZNSt10unique_ptrIN5Darts15DoubleArrayImplIvvivEESt14default_deleteIS2_EED2Ev.exit: ; preds = %13, %_ZNKSt14default_deleteIN5Darts15DoubleArrayImplIvvivEEEclEPS2_.exit.i
  store ptr null, ptr %3, align 8, !tbaa !52
  resume { ptr, i32 } %.pn
}